target datalayout = "e-m:e-p270:32:32-p271:32:32-p272:64:64-i64:64-i128:128-f80:128-n8:16:32:64-S128"
target triple = "x86_64-pc-linux-gnu"

%struct.expert_field = type { i32, i32 }
%struct.reassembly_table = type { ptr, ptr, ptr, ptr, ptr }
%struct.mysql_conn_data = type { i16, i16, i16, i16, ptr, i8, i32, i32, i8, i8, i8, i8, i32, i32, ptr, ptr, i32, i32, i32, i64, %struct.my_metadata_list_t, i32, i32 }
%struct.my_metadata_list_t = type { i16, ptr, ptr, ptr }
%struct._packet_info = type { ptr, ptr, i32, i32, %struct.nstime_t, %struct.nstime_t, %struct.nstime_t, i8, ptr, ptr, ptr, ptr, %struct._address, %struct._address, %struct._address, %struct._address, %struct._address, %struct._address, i32, ptr, i8, [3 x i8], %struct.anon, i32, i32, i32, i32, ptr, i8, ptr, ptr, i16, i16, i32, i32, i16, i32, i32, ptr, ptr, ptr, i8, i8, i16, i16, i16, i32, i16, i16, ptr, ptr, ptr, ptr, ptr, i32, i32 }
%struct.nstime_t = type { i64, i32 }
%struct._address = type { i32, i32, ptr, ptr }
%struct.anon = type { i8, [3 x i8] }

@hf_mysql_compressed_packet_length = internal global i32 0, align 4
@hf_mysql_compressed_packet_number = internal global i32 0, align 4
@hf_mysql_compressed_packet_length_uncompressed = internal global i32 0, align 4
@hf_mysql_fragment_data = internal global i32 0, align 4
@ett_mysql = internal global i32 0, align 4
@ei_mysql_compression = internal global %struct.expert_field zeroinitializer, align 4
@.str.589 = private unnamed_addr constant [6 x i8] c"MySQL\00", align 1
@proto_mysql = internal global i32 0, align 4
@mysql_reassembly_table = internal global %struct.reassembly_table zeroinitializer, align 8
@decompressed_handle = internal global ptr null, align 8
@.str.1194 = private unnamed_addr constant [28 x i8] c" - compressed packet header\00", align 1
@.str.1195 = private unnamed_addr constant [16 x i8] c"compressed data\00", align 1
@.str.1196 = private unnamed_addr constant [24 x i8] c"Can't uncompress packet\00", align 1

; Function Attrs: inlinehint null_pointer_is_valid sspstrong uwtable
define internal i64 @get_virtual_frame_num64(ptr noundef %0, ptr noundef %1, i32 noundef %2) #4 {
  %4 = alloca ptr, align 8
  %5 = alloca ptr, align 8
  %6 = alloca i32, align 4
  store ptr %0, ptr %4, align 8
  store ptr %1, ptr %5, align 8
  store i32 %2, ptr %6, align 4
  %7 = load ptr, ptr %5, align 8
  %8 = getelementptr inbounds nuw %struct._packet_info, ptr %7, i32 0, i32 3
  %9 = load i32, ptr %8, align 4
  %10 = zext i32 %9 to i64
  %11 = shl i64 %10, 32
  %12 = load ptr, ptr %5, align 8
  %13 = getelementptr inbounds nuw %struct._packet_info, ptr %12, i32 0, i32 41
  %14 = load i8, ptr %13, align 8
  %15 = zext i8 %14 to i64
  %16 = shl i64 %15, 24
  %17 = add i64 %11, %16
  %18 = load ptr, ptr %4, align 8
  %19 = call i32 @tvb_raw_offset(ptr noundef %18)
  %20 = sext i32 %19 to i64
  %21 = load i32, ptr %6, align 4
  %22 = sext i32 %21 to i64
  %23 = add i64 %20, %22
  %24 = add i64 %17, %23
  ret i64 %24
}

; Function Attrs: null_pointer_is_valid sspstrong uwtable
define internal i32 @dissect_mysql_compressed_pdu(ptr noundef %0, ptr noundef %1, ptr noundef %2, ptr noundef %3) #0 {
  %5 = alloca ptr, align 8
  %6 = alloca ptr, align 8
  %7 = alloca ptr, align 8
  %8 = alloca ptr, align 8
  %9 = alloca ptr, align 8
  %10 = alloca ptr, align 8
  %11 = alloca ptr, align 8
  %12 = alloca ptr, align 8
  %13 = alloca ptr, align 8
  %14 = alloca i32, align 4
  %15 = alloca i32, align 4
  %16 = alloca i32, align 4
  store ptr %0, ptr %5, align 8
  store ptr %1, ptr %6, align 8
  store ptr %2, ptr %7, align 8
  store ptr %3, ptr %8, align 8
  call void @llvm.lifetime.start.p0(i64 8, ptr %9) #11
  call void @llvm.lifetime.start.p0(i64 8, ptr %10) #11
  call void @llvm.lifetime.start.p0(i64 8, ptr %11) #11
  call void @llvm.lifetime.start.p0(i64 8, ptr %12) #11
  call void @llvm.lifetime.start.p0(i64 8, ptr %13) #11
  call void @llvm.lifetime.start.p0(i64 4, ptr %14) #11
  store i32 0, ptr %14, align 4
  call void @llvm.lifetime.start.p0(i64 4, ptr %15) #11
  call void @llvm.lifetime.start.p0(i64 4, ptr %16) #11
  %17 = load ptr, ptr %6, align 8
  %18 = call ptr @find_or_create_conversation(ptr noundef %17)
  store ptr %18, ptr %12, align 8
  %19 = load ptr, ptr %12, align 8
  %20 = load i32, ptr @proto_mysql, align 4
  %21 = call ptr @conversation_get_proto_data(ptr noundef %19, i32 noundef %20)
  store ptr %21, ptr %13, align 8
  %22 = load ptr, ptr %13, align 8
  %23 = icmp ne ptr %22, null
  br i1 %23, label %40, label %24

24:                                               ; preds = %4
  %25 = call ptr @wmem_file_scope()
  %26 = call noalias ptr @wmem_alloc0(ptr noundef %25, i64 noundef 120) #14
  store ptr %26, ptr %13, align 8
  %27 = call ptr @wmem_file_scope()
  %28 = call noalias ptr @wmem_tree_new(ptr noundef %27)
  %29 = load ptr, ptr %13, align 8
  %30 = getelementptr inbounds nuw %struct.mysql_conn_data, ptr %29, i32 0, i32 4
  store ptr %28, ptr %30, align 8
  %31 = load ptr, ptr %13, align 8
  %32 = getelementptr inbounds nuw %struct.mysql_conn_data, ptr %31, i32 0, i32 8
  store i8 2, ptr %32, align 4
  %33 = load ptr, ptr %13, align 8
  %34 = getelementptr inbounds nuw %struct.mysql_conn_data, ptr %33, i32 0, i32 21
  store i32 2, ptr %34, align 8
  %35 = load ptr, ptr %13, align 8
  %36 = getelementptr inbounds nuw %struct.mysql_conn_data, ptr %35, i32 0, i32 22
  store i32 2, ptr %36, align 4
  %37 = load ptr, ptr %12, align 8
  %38 = load i32, ptr @proto_mysql, align 4
  %39 = load ptr, ptr %13, align 8
  call void @conversation_add_proto_data(ptr noundef %37, i32 noundef %38, ptr noundef %39)
  br label %40

40:                                               ; preds = %24, %4
  %41 = load ptr, ptr %13, align 8
  %42 = getelementptr inbounds nuw %struct.mysql_conn_data, ptr %41, i32 0, i32 15
  %43 = load ptr, ptr %42, align 8
  %44 = icmp ne ptr %43, null
  br i1 %44, label %49, label %45

45:                                               ; preds = %40
  %46 = call ptr @streaming_reassembly_info_new()
  %47 = load ptr, ptr %13, align 8
  %48 = getelementptr inbounds nuw %struct.mysql_conn_data, ptr %47, i32 0, i32 15
  store ptr %46, ptr %48, align 8
  br label %49

49:                                               ; preds = %45, %40
  %50 = load ptr, ptr %7, align 8
  %51 = load i32, ptr @proto_mysql, align 4
  %52 = load ptr, ptr %5, align 8
  %53 = load i32, ptr %14, align 4
  %54 = call ptr @proto_tree_add_item(ptr noundef %50, i32 noundef %51, ptr noundef %52, i32 noundef %53, i32 noundef 7, i32 noundef 0)
  store ptr %54, ptr %10, align 8
  %55 = load ptr, ptr %10, align 8
  call void (ptr, ptr, ...) @proto_item_append_text(ptr noundef %55, ptr noundef @.str.1194)
  %56 = load ptr, ptr %10, align 8
  %57 = load i32, ptr @ett_mysql, align 4
  %58 = call ptr @proto_item_add_subtree(ptr noundef %56, i32 noundef %57)
  store ptr %58, ptr %9, align 8
  %59 = load ptr, ptr %6, align 8
  %60 = getelementptr inbounds nuw %struct._packet_info, ptr %59, i32 0, i32 1
  %61 = load ptr, ptr %60, align 8
  call void @col_set_str(ptr noundef %61, i32 noundef 35, ptr noundef @.str.589)
  %62 = load ptr, ptr %5, align 8
  %63 = load i32, ptr %14, align 4
  %64 = call i32 @tvb_get_letoh24(ptr noundef %62, i32 noundef %63)
  store i32 %64, ptr %15, align 4
  %65 = load ptr, ptr %9, align 8
  %66 = load i32, ptr @hf_mysql_compressed_packet_length, align 4
  %67 = load ptr, ptr %5, align 8
  %68 = load i32, ptr %14, align 4
  %69 = call ptr @proto_tree_add_item(ptr noundef %65, i32 noundef %66, ptr noundef %67, i32 noundef %68, i32 noundef 3, i32 noundef -2147483648)
  %70 = load i32, ptr %14, align 4
  %71 = add i32 %70, 3
  store i32 %71, ptr %14, align 4
  %72 = load ptr, ptr %9, align 8
  %73 = load i32, ptr @hf_mysql_compressed_packet_number, align 4
  %74 = load ptr, ptr %5, align 8
  %75 = load i32, ptr %14, align 4
  %76 = call ptr @proto_tree_add_item(ptr noundef %72, i32 noundef %73, ptr noundef %74, i32 noundef %75, i32 noundef 1, i32 noundef 0)
  %77 = load i32, ptr %14, align 4
  %78 = add i32 %77, 1
  store i32 %78, ptr %14, align 4
  %79 = load ptr, ptr %5, align 8
  %80 = load i32, ptr %14, align 4
  %81 = call i32 @tvb_get_letoh24(ptr noundef %79, i32 noundef %80)
  store i32 %81, ptr %16, align 4
  %82 = load ptr, ptr %9, align 8
  %83 = load i32, ptr @hf_mysql_compressed_packet_length_uncompressed, align 4
  %84 = load ptr, ptr %5, align 8
  %85 = load i32, ptr %14, align 4
  %86 = call ptr @proto_tree_add_item(ptr noundef %82, i32 noundef %83, ptr noundef %84, i32 noundef %85, i32 noundef 3, i32 noundef -2147483648)
  %87 = load i32, ptr %14, align 4
  %88 = add i32 %87, 3
  store i32 %88, ptr %14, align 4
  %89 = load i32, ptr %16, align 4
  %90 = icmp ugt i32 %89, 0
  br i1 %90, label %91, label %139

91:                                               ; preds = %49
  %92 = load ptr, ptr %13, align 8
  %93 = getelementptr inbounds nuw %struct.mysql_conn_data, ptr %92, i32 0, i32 9
  %94 = load i8, ptr %93, align 1
  %95 = zext i8 %94 to i32
  switch i32 %95, label %103 [
    i32 1, label %96
    i32 0, label %102
  ]

96:                                               ; preds = %91
  %97 = load ptr, ptr %5, align 8
  %98 = load ptr, ptr %5, align 8
  %99 = load i32, ptr %14, align 4
  %100 = load i32, ptr %15, align 4
  %101 = call ptr @tvb_child_uncompress_zstd(ptr noundef %97, ptr noundef %98, i32 noundef %99, i32 noundef %100)
  store ptr %101, ptr %11, align 8
  br label %109

102:                                              ; preds = %91
  br label %103

103:                                              ; preds = %91, %102
  %104 = load ptr, ptr %5, align 8
  %105 = load ptr, ptr %5, align 8
  %106 = load i32, ptr %14, align 4
  %107 = load i32, ptr %15, align 4
  %108 = call ptr @tvb_child_uncompress_zlib(ptr noundef %104, ptr noundef %105, i32 noundef %106, i32 noundef %107)
  store ptr %108, ptr %11, align 8
  br label %109

109:                                              ; preds = %103, %96
  %110 = load ptr, ptr %11, align 8
  %111 = icmp ne ptr %110, null
  br i1 %111, label %112, label %134

112:                                              ; preds = %109
  %113 = load ptr, ptr %6, align 8
  %114 = load ptr, ptr %11, align 8
  call void @add_new_data_source(ptr noundef %113, ptr noundef %114, ptr noundef @.str.1195)
  %115 = load ptr, ptr %11, align 8
  %116 = load ptr, ptr %6, align 8
  %117 = load i32, ptr %16, align 4
  %118 = load ptr, ptr %9, align 8
  %119 = load ptr, ptr %7, align 8
  %120 = load ptr, ptr %13, align 8
  %121 = getelementptr inbounds nuw %struct.mysql_conn_data, ptr %120, i32 0, i32 15
  %122 = load ptr, ptr %121, align 8
  %123 = load ptr, ptr %11, align 8
  %124 = load ptr, ptr %6, align 8
  %125 = call i64 @get_virtual_frame_num64(ptr noundef %123, ptr noundef %124, i32 noundef 0)
  %126 = load ptr, ptr @decompressed_handle, align 8
  %127 = load ptr, ptr %7, align 8
  %128 = load ptr, ptr %8, align 8
  %129 = load i32, ptr @hf_mysql_fragment_data, align 4
  %130 = call i32 @reassemble_streaming_data_and_call_subdissector(ptr noundef %115, ptr noundef %116, i32 noundef 0, i32 noundef %117, ptr noundef %118, ptr noundef %119, ptr noundef byval(%struct.reassembly_table) align 8 @mysql_reassembly_table, ptr noundef %122, i64 noundef %125, ptr noundef %126, ptr noundef %127, ptr noundef %128, ptr noundef @.str.589, ptr noundef @mysql_frag_items, i32 noundef %129)
  %131 = load i32, ptr %15, align 4
  %132 = load i32, ptr %14, align 4
  %133 = add i32 %132, %131
  store i32 %133, ptr %14, align 4
  br label %138

134:                                              ; preds = %109
  %135 = load ptr, ptr %6, align 8
  %136 = load ptr, ptr %9, align 8
  %137 = call ptr (ptr, ptr, ptr, ptr, ...) @expert_add_info_format(ptr noundef %135, ptr noundef %136, ptr noundef @ei_mysql_compression, ptr noundef @.str.1196)
  br label %138

138:                                              ; preds = %134, %112
  br label %162

139:                                              ; preds = %49
  %140 = load ptr, ptr %5, align 8
  %141 = load ptr, ptr %6, align 8
  %142 = load i32, ptr %14, align 4
  %143 = load ptr, ptr %5, align 8
  %144 = load i32, ptr %14, align 4
  %145 = call i32 @tvb_reported_length_remaining(ptr noundef %143, i32 noundef %144)
  %146 = load ptr, ptr %9, align 8
  %147 = load ptr, ptr %7, align 8
  %148 = load ptr, ptr %13, align 8
  %149 = getelementptr inbounds nuw %struct.mysql_conn_data, ptr %148, i32 0, i32 15
  %150 = load ptr, ptr %149, align 8
  %151 = load ptr, ptr %5, align 8
  %152 = load ptr, ptr %6, align 8
  %153 = load i32, ptr %14, align 4
  %154 = call i64 @get_virtual_frame_num64(ptr noundef %151, ptr noundef %152, i32 noundef %153)
  %155 = load ptr, ptr @decompressed_handle, align 8
  %156 = load ptr, ptr %7, align 8
  %157 = load ptr, ptr %8, align 8
  %158 = load i32, ptr @hf_mysql_fragment_data, align 4
  %159 = call i32 @reassemble_streaming_data_and_call_subdissector(ptr noundef %140, ptr noundef %141, i32 noundef %142, i32 noundef %145, ptr noundef %146, ptr noundef %147, ptr noundef byval(%struct.reassembly_table) align 8 @mysql_reassembly_table, ptr noundef %150, i64 noundef %154, ptr noundef %155, ptr noundef %156, ptr noundef %157, ptr noundef @.str.589, ptr noundef @mysql_frag_items, i32 noundef %158)
  %160 = load ptr, ptr %5, align 8
  %161 = call i32 @tvb_reported_length(ptr noundef %160)
  store i32 %161, ptr %14, align 4
  br label %162

162:                                              ; preds = %139, %138
  %163 = load i32, ptr %14, align 4
  call void @llvm.lifetime.end.p0(i64 4, ptr %16) #11
  call void @llvm.lifetime.end.p0(i64 4, ptr %15) #11
  call void @llvm.lifetime.end.p0(i64 4, ptr %14) #11
  call void @llvm.lifetime.end.p0(i64 8, ptr %13) #11
  call void @llvm.lifetime.end.p0(i64 8, ptr %12) #11
  call void @llvm.lifetime.end.p0(i64 8, ptr %11) #11
  call void @llvm.lifetime.end.p0(i64 8, ptr %10) #11
  call void @llvm.lifetime.end.p0(i64 8, ptr %9) #11
  ret i32 %163
}