; Function Attrs: null_pointer_is_valid sspstrong uwtable
define internal i32 @dissect_mysql_compressed_pdu(ptr noundef %0, ptr noundef %1, ptr noundef %2, ptr noundef %3) #0 {
  %5 = tail call ptr @find_or_create_conversation(ptr noundef %1)
  %6 = load i32, ptr @proto_mysql, align 4
  %7 = tail call ptr @conversation_get_proto_data(ptr noundef %5, i32 noundef %6)
  %.not = icmp eq ptr %7, null
  br i1 %.not, label %8, label %18

8:                                                ; preds = %4
  %9 = tail call ptr @wmem_file_scope()
  %10 = tail call noalias dereferenceable_or_null(120) ptr @wmem_alloc0(ptr noundef %9, i64 noundef 120) #13
  %11 = tail call ptr @wmem_file_scope()
  %12 = tail call noalias ptr @wmem_tree_new(ptr noundef %11)
  %13 = getelementptr inbounds nuw i8, ptr %10, i64 8
  store ptr %12, ptr %13, align 8
  %14 = getelementptr inbounds nuw i8, ptr %10, i64 28
  store i8 2, ptr %14, align 4
  %15 = getelementptr inbounds nuw i8, ptr %10, i64 112
  store i32 2, ptr %15, align 8
  %16 = getelementptr inbounds nuw i8, ptr %10, i64 116
  store i32 2, ptr %16, align 4
  %17 = load i32, ptr @proto_mysql, align 4
  tail call void @conversation_add_proto_data(ptr noundef %5, i32 noundef %17, ptr noundef %10)
  br label %18

18:                                               ; preds = %8, %4
  %.074 = phi ptr [ %7, %4 ], [ %10, %8 ]
  %19 = getelementptr inbounds nuw i8, ptr %.074, i64 48
  %20 = load ptr, ptr %19, align 8
  %.not78 = icmp eq ptr %20, null
  br i1 %.not78, label %21, label %23

21:                                               ; preds = %18
  %22 = tail call ptr @streaming_reassembly_info_new()
  store ptr %22, ptr %19, align 8
  br label %23

23:                                               ; preds = %21, %18
  %24 = load i32, ptr @proto_mysql, align 4
  %25 = tail call ptr @proto_tree_add_item(ptr noundef %2, i32 noundef %24, ptr noundef %0, i32 noundef 0, i32 noundef 7, i32 noundef 0)
  tail call void (ptr, ptr, ...) @proto_item_append_text(ptr noundef %25, ptr noundef nonnull @.str.1194)
  %26 = load i32, ptr @ett_mysql, align 4
  %27 = tail call ptr @proto_item_add_subtree(ptr noundef %25, i32 noundef %26)
  %28 = getelementptr inbounds nuw i8, ptr %1, i64 8
  %29 = load ptr, ptr %28, align 8
  tail call void @col_set_str(ptr noundef %29, i32 noundef 35, ptr noundef nonnull @.str.589)
  %30 = tail call i32 @tvb_get_letoh24(ptr noundef %0, i32 noundef 0)
  %31 = load i32, ptr @hf_mysql_compressed_packet_length, align 4
  %32 = tail call ptr @proto_tree_add_item(ptr noundef %27, i32 noundef %31, ptr noundef %0, i32 noundef 0, i32 noundef 3, i32 noundef -2147483648)
  %33 = load i32, ptr @hf_mysql_compressed_packet_number, align 4
  %34 = tail call ptr @proto_tree_add_item(ptr noundef %27, i32 noundef %33, ptr noundef %0, i32 noundef 3, i32 noundef 1, i32 noundef 0)
  %35 = tail call i32 @tvb_get_letoh24(ptr noundef %0, i32 noundef 4)
  %36 = load i32, ptr @hf_mysql_compressed_packet_length_uncompressed, align 4
  %37 = tail call ptr @proto_tree_add_item(ptr noundef %27, i32 noundef %36, ptr noundef %0, i32 noundef 4, i32 noundef 3, i32 noundef -2147483648)
  %.not79 = icmp eq i32 %35, 0
  br i1 %.not79, label %64, label %38

38:                                               ; preds = %23
  %39 = getelementptr inbounds nuw i8, ptr %.074, i64 29
  %40 = load i8, ptr %39, align 1
  %cond = icmp eq i8 %40, 1
  br i1 %cond, label %41, label %43

41:                                               ; preds = %38
  %42 = tail call ptr @tvb_child_uncompress_zstd(ptr noundef %0, ptr noundef %0, i32 noundef 7, i32 noundef %30)
  br label %45

43:                                               ; preds = %38
  %44 = tail call ptr @tvb_child_uncompress_zlib(ptr noundef %0, ptr noundef %0, i32 noundef 7, i32 noundef %30)
  br label %45

45:                                               ; preds = %43, %41
  %.0 = phi ptr [ %42, %41 ], [ %44, %43 ]
  %.not80 = icmp eq ptr %.0, null
  br i1 %.not80, label %62, label %46

46:                                               ; preds = %45
  tail call void @add_new_data_source(ptr noundef %1, ptr noundef nonnull %.0, ptr noundef nonnull @.str.1195)
  %47 = load ptr, ptr %19, align 8
  %48 = getelementptr i8, ptr %1, i64 20
  %.val = load i32, ptr %48, align 4
  %49 = getelementptr i8, ptr %1, i64 376
  %.val81 = load i8, ptr %49, align 8
  %50 = zext i32 %.val to i64
  %51 = shl nuw i64 %50, 32
  %52 = zext i8 %.val81 to i64
  %53 = shl nuw nsw i64 %52, 24
  %54 = tail call i32 @tvb_raw_offset(ptr noundef nonnull %.0)
  %55 = sext i32 %54 to i64
  %56 = or disjoint i64 %53, %51
  %57 = add i64 %56, %55
  %58 = load ptr, ptr @decompressed_handle, align 8
  %59 = load i32, ptr @hf_mysql_fragment_data, align 4
  %60 = tail call i32 @reassemble_streaming_data_and_call_subdissector(ptr noundef nonnull %.0, ptr noundef %1, i32 noundef 0, i32 noundef %35, ptr noundef %27, ptr noundef %2, ptr noundef nonnull byval(%struct.reassembly_table) align 8 @mysql_reassembly_table, ptr noundef %47, i64 noundef %57, ptr noundef %58, ptr noundef %2, ptr noundef %3, ptr noundef nonnull @.str.589, ptr noundef nonnull @mysql_frag_items, i32 noundef %59)
  %61 = add i32 %30, 7
  br label %82

62:                                               ; preds = %45
  %63 = tail call ptr (ptr, ptr, ptr, ptr, ...) @expert_add_info_format(ptr noundef %1, ptr noundef %27, ptr noundef nonnull @ei_mysql_compression, ptr noundef nonnull @.str.1196)
  br label %82

64:                                               ; preds = %23
  %65 = tail call i32 @tvb_reported_length_remaining(ptr noundef %0, i32 noundef 7)
  %66 = load ptr, ptr %19, align 8
  %67 = getelementptr i8, ptr %1, i64 20
  %.val82 = load i32, ptr %67, align 4
  %68 = getelementptr i8, ptr %1, i64 376
  %.val83 = load i8, ptr %68, align 8
  %69 = zext i32 %.val82 to i64
  %70 = shl nuw i64 %69, 32
  %71 = zext i8 %.val83 to i64
  %72 = shl nuw nsw i64 %71, 24
  %73 = tail call i32 @tvb_raw_offset(ptr noundef %0)
  %74 = sext i32 %73 to i64
  %75 = or disjoint i64 %70, %72
  %76 = add nsw i64 %74, 7
  %77 = add i64 %76, %75
  %78 = load ptr, ptr @decompressed_handle, align 8
  %79 = load i32, ptr @hf_mysql_fragment_data, align 4
  %80 = tail call i32 @reassemble_streaming_data_and_call_subdissector(ptr noundef %0, ptr noundef %1, i32 noundef 7, i32 noundef %65, ptr noundef %27, ptr noundef %2, ptr noundef nonnull byval(%struct.reassembly_table) align 8 @mysql_reassembly_table, ptr noundef %66, i64 noundef %77, ptr noundef %78, ptr noundef %2, ptr noundef %3, ptr noundef nonnull @.str.589, ptr noundef nonnull @mysql_frag_items, i32 noundef %79)
  %81 = tail call i32 @tvb_reported_length(ptr noundef %0)
  br label %82

82:                                               ; preds = %46, %62, %64
  %.075 = phi i32 [ %61, %46 ], [ 7, %62 ], [ %81, %64 ]
  ret i32 %.075
}